; Function Attrs: nounwind uwtable
define internal fastcc ptr @_init_l_ImportCompletion_isImportCompletionRequest___closed__2() unnamed_addr #0 {
  %1 = load ptr, ptr @l_ImportCompletion_isImportCompletionRequest___closed__1, align 8, !tbaa !4
  %2 = load ptr, ptr @l_Array_anyMUnsafe_any___at_ImportCompletion_isImportNameCompletionRequest___spec__1___closed__1, align 8, !tbaa !4
  %3 = ptrtoint ptr %1 to i64
  %4 = and i64 %3, 1
  %.not = icmp eq i64 %4, 0
  br i1 %.not, label %.critedge.i, label %5, !prof !15

5:                                                ; preds = %0
  %6 = ptrtoint ptr %2 to i64
  %7 = and i64 %6, 1
  %.not4 = icmp eq i64 %7, 0
  br i1 %.not4, label %.critedge.i, label %8, !prof !15

8:                                                ; preds = %5
  %9 = lshr i64 %3, 1
  %10 = lshr i64 %6, 1
  %11 = add nuw i64 %10, %9
  %12 = icmp sgt i64 %11, -1
  br i1 %12, label %13, label %17, !prof !11

13:                                               ; preds = %8
  %14 = shl nuw i64 %11, 1
  %15 = or disjoint i64 %14, 1
  %16 = inttoptr i64 %15 to ptr
  br label %lean_nat_add.exit

17:                                               ; preds = %8
  %18 = tail call ptr @lean_big_usize_to_nat(i64 noundef range(i64 0, -1) %11) #5
  br label %lean_nat_add.exit

.critedge.i:                                      ; preds = %5, %0
  %19 = tail call ptr @lean_nat_big_add(ptr noundef %1, ptr noundef %2) #5
  br label %lean_nat_add.exit

lean_nat_add.exit:                                ; preds = %17, %13, %.critedge.i
  %.0.i = phi ptr [ %19, %.critedge.i ], [ %16, %13 ], [ %18, %17 ]
  ret ptr %.0.i
}